; Function Attrs: mustprogress uwtable
define void @_ZN5boost10stacktrace9to_stringB5cxx11ERKNS0_5frameE(ptr dead_on_unwind noalias writable sret(%"class.std::__cxx11::basic_string") align 8 %0, ptr nocapture noundef nonnull readonly align 8 dereferenceable(8) %1) local_unnamed_addr #8 personality ptr @__gxx_personality_v0 {
  %3 = alloca %"class.boost::stacktrace::detail::to_string_impl_base", align 8
  %4 = load ptr, ptr %1, align 8, !tbaa !12
  %.not.i.i.not = icmp eq ptr %4, null
  br i1 %.not.i.i.not, label %5, label %8

5:                                                ; preds = %2
  %6 = getelementptr inbounds nuw i8, ptr %0, i64 16
  store ptr %6, ptr %0, align 8, !tbaa !20
  %7 = getelementptr inbounds nuw i8, ptr %0, i64 8
  store i64 0, ptr %7, align 8, !tbaa !14
  store i8 0, ptr %6, align 8, !tbaa !19
  br label %26

8:                                                ; preds = %2
  call void @llvm.lifetime.start.p0(i64 32, ptr nonnull %3) #24
  %9 = getelementptr inbounds nuw i8, ptr %3, i64 16
  store ptr %9, ptr %3, align 8, !tbaa !20
  %10 = getelementptr inbounds nuw i8, ptr %3, i64 8
  store i64 0, ptr %10, align 8, !tbaa !14
  store i8 0, ptr %9, align 8, !tbaa !19
  invoke void @_ZN5boost10stacktrace6detail19to_string_impl_baseINS1_25to_string_using_addr2lineEEclB5cxx11EPKv(ptr dead_on_unwind writable sret(%"class.std::__cxx11::basic_string") align 8 %0, ptr noundef nonnull align 8 dereferenceable(32) %3, ptr noundef nonnull %4)
          to label %11 unwind label %18

11:                                               ; preds = %8
  %12 = load ptr, ptr %3, align 8, !tbaa !17
  %13 = icmp eq ptr %12, %9
  br i1 %13, label %_ZNKSt7__cxx1112basic_stringIcSt11char_traitsIcESaIcEE11_M_is_localEv.exit.thread.i.i.i, label %_ZNKSt7__cxx1112basic_stringIcSt11char_traitsIcESaIcEE11_M_is_localEv.exit.i.i.i

_ZNKSt7__cxx1112basic_stringIcSt11char_traitsIcESaIcEE11_M_is_localEv.exit.thread.i.i.i: ; preds = %11
  %14 = load i64, ptr %10, align 8, !tbaa !14
  %15 = icmp ult i64 %14, 16
  call void @llvm.assume(i1 %15)
  br label %_ZN5boost10stacktrace6detail25to_string_using_addr2lineD2Ev.exit

_ZNKSt7__cxx1112basic_stringIcSt11char_traitsIcESaIcEE11_M_is_localEv.exit.i.i.i: ; preds = %11
  %16 = load i64, ptr %9, align 8, !tbaa !19
  %17 = add i64 %16, 1
  call void @_ZdlPvm(ptr noundef %12, i64 noundef %17) #25
  br label %_ZN5boost10stacktrace6detail25to_string_using_addr2lineD2Ev.exit

_ZN5boost10stacktrace6detail25to_string_using_addr2lineD2Ev.exit: ; preds = %_ZNKSt7__cxx1112basic_stringIcSt11char_traitsIcESaIcEE11_M_is_localEv.exit.thread.i.i.i, %_ZNKSt7__cxx1112basic_stringIcSt11char_traitsIcESaIcEE11_M_is_localEv.exit.i.i.i
  call void @llvm.lifetime.end.p0(i64 32, ptr nonnull %3) #24
  br label %26

18:                                               ; preds = %8
  %19 = landingpad { ptr, i32 }
          cleanup
  %20 = load ptr, ptr %3, align 8, !tbaa !17
  %21 = icmp eq ptr %20, %9
  br i1 %21, label %_ZNKSt7__cxx1112basic_stringIcSt11char_traitsIcESaIcEE11_M_is_localEv.exit.thread.i.i.i4, label %_ZNKSt7__cxx1112basic_stringIcSt11char_traitsIcESaIcEE11_M_is_localEv.exit.i.i.i3

_ZNKSt7__cxx1112basic_stringIcSt11char_traitsIcESaIcEE11_M_is_localEv.exit.thread.i.i.i4: ; preds = %18
  %22 = load i64, ptr %10, align 8, !tbaa !14
  %23 = icmp ult i64 %22, 16
  call void @llvm.assume(i1 %23)
  br label %_ZN5boost10stacktrace6detail25to_string_using_addr2lineD2Ev.exit5

_ZNKSt7__cxx1112basic_stringIcSt11char_traitsIcESaIcEE11_M_is_localEv.exit.i.i.i3: ; preds = %18
  %24 = load i64, ptr %9, align 8, !tbaa !19
  %25 = add i64 %24, 1
  call void @_ZdlPvm(ptr noundef %20, i64 noundef %25) #25
  br label %_ZN5boost10stacktrace6detail25to_string_using_addr2lineD2Ev.exit5

_ZN5boost10stacktrace6detail25to_string_using_addr2lineD2Ev.exit5: ; preds = %_ZNKSt7__cxx1112basic_stringIcSt11char_traitsIcESaIcEE11_M_is_localEv.exit.thread.i.i.i4, %_ZNKSt7__cxx1112basic_stringIcSt11char_traitsIcESaIcEE11_M_is_localEv.exit.i.i.i3
  call void @llvm.lifetime.end.p0(i64 32, ptr nonnull %3) #24
  resume { ptr, i32 } %19

26:                                               ; preds = %_ZN5boost10stacktrace6detail25to_string_using_addr2lineD2Ev.exit, %5
  ret void
}